Certificate:
    Data:
        Version: 3 (0x2)
        Serial Number:
            5b:bf:98:f0:d9:aa:6b:95:12:40:53:1e:48:f0:74:31:e6:e9:cf:46
        Signature Algorithm: sha256WithRSAEncryption
        Issuer: C=IE, ST=Laighin, O=openssl-ech, CN=ca
        Validity
            Not Before: Feb 15 15:33:55 2024 GMT
            Not After : Feb 12 15:33:55 2034 GMT
        Subject: C=IE, ST=Laighin, O=openssl-ech, CN=example.com
        Subject Public Key Info:
            Public Key Algorithm: rsaEncryption
                Public-Key: (2048 bit)
                Modulus:
                    00:a8:4a:15:ff:a9:f1:17:ca:96:c7:80:ec:aa:42:
                    3f:93:c9:a7:d2:77:80:00:9e:fd:7c:5f:f9:a5:ed:
                    9b:79:bf:7d:3a:55:7e:47:91:b0:15:59:94:5e:0a:
                    01:79:00:ed:0a:02:0c:11:1e:4b:83:5b:b1:5f:f4:
                    f4:88:f7:10:20:bb:5c:a5:19:a9:31:f3:12:66:f1:
                    f1:f3:64:69:77:32:61:5b:f3:48:53:1b:43:60:bb:
                    94:64:9a:c2:66:34:9e:c4:74:6a:33:f4:e4:25:c3:
                    b2:6f:80:ce:44:8b:3e:a9:20:16:df:1e:8e:53:2e:
                    63:65:de:cf:61:58:0f:67:74:7e:c8:e3:79:54:52:
                    e5:1c:cb:82:3c:02:3e:d2:6f:c5:26:d6:ab:e4:52:
                    ce:5b:85:69:1c:68:ce:68:b1:ad:43:86:ca:ec:16:
                    3e:2c:25:bb:b5:56:ee:e8:82:3b:9a:b1:d4:b1:7e:
                    b7:e1:1d:c5:6f:85:3b:6b:f8:0b:21:9e:eb:20:13:
                    b9:b5:32:62:0b:67:e7:9a:f5:20:9f:fe:6e:25:c6:
                    79:99:47:43:4e:91:e8:db:85:e3:fa:a2:3d:24:1b:
                    4c:e6:19:9f:3d:b5:f8:32:b6:a5:d3:3d:5a:10:03:
                    27:ae:7a:e7:b1:53:21:eb:d9:44:a2:9d:f5:3b:ad:
                    18:df
                Exponent: 65537 (0x10001)
        X509v3 extensions:
            X509v3 Basic Constraints: 
                CA:FALSE
            X509v3 Subject Key Identifier: 
                9B:37:9B:AE:41:3A:CE:57:D0:57:37:E0:13:1D:E2:F0:C2:E6:C2:2B
            X509v3 Authority Key Identifier: 
                98:8F:3E:57:A3:24:22:CB:53:0E:8F:06:E3:2D:4D:C3:05:EE:2A:9B
            X509v3 Subject Alternative Name: 
                DNS:*.example.com, DNS:example.com
    Signature Algorithm: sha256WithRSAEncryption
    Signature Value:
        d9:12:cd:a5:54:ce:a7:6a:07:99:b1:08:33:bf:71:97:d6:b6:
        28:77:4b:0e:68:f5:8a:48:b1:ff:99:63:e9:e1:e5:b4:6f:1f:
        ad:11:f9:77:31:fa:ca:a5:48:b7:a7:a3:8c:39:47:a7:b5:36:
        fe:21:3a:57:a6:57:b9:2b:6a:b2:b2:b2:9b:8a:43:7d:0c:ee:
        fa:71:c7:ed:71:a0:46:2e:d8:98:71:bf:53:c8:70:d1:e7:42:
        51:c4:fc:78:c8:3e:7e:29:94:eb:cd:59:09:79:4d:10:70:d3:
        49:c9:f7:e1:8c:3a:c2:8b:2c:68:0c:3d:78:c0:54:58:57:44:
        ce:48:0e:bc:42:63:4e:03:ae:6c:0d:1a:e8:28:db:a1:5d:56:
        f3:86:5f:24:be:a9:6d:12:34:80:53:96:be:d6:c6:6d:f5:24:
        2d:41:29:cb:43:10:b2:13:ef:5b:f7:31:7a:36:cc:29:79:c2:
        3f:ab:db:b0:0c:f8:22:76:37:5c:0e:e8:53:d9:5a:5a:f4:5d:
        17:a6:a0:ee:72:95:2c:c5:9b:06:87:0b:12:c5:ee:4d:69:33:
        44:97:e3:c7:7a:80:39:d2:f9:44:56:04:e9:2e:1f:d0:13:36:
        ba:b3:42:64:51:10:7a:f4:88:38:74:2d:28:1f:8d:70:dd:8d:
        23:20:8b:fc
-----BEGIN CERTIFICATE-----
MIIDjzCCAnegAwIBAgIUW7+Y8Nmqa5USQFMeSPB0Mebpz0YwDQYJKoZIhvcNAQEL
BQAwQjELMAkGA1UEBhMCSUUxEDAOBgNVBAgMB0xhaWdoaW4xFDASBgNVBAoMC29w
ZW5zc2wtZWNoMQswCQYDVQQDDAJjYTAeFw0yNDAyMTUxNTMzNTVaFw0zNDAyMTIx
NTMzNTVaMEsxCzAJBgNVBAYTAklFMRAwDgYDVQQIDAdMYWlnaGluMRQwEgYDVQQK
DAtvcGVuc3NsLWVjaDEUMBIGA1UEAwwLZXhhbXBsZS5jb20wggEiMA0GCSqGSIb3
DQEBAQUAA4IBDwAwggEKAoIBAQCoShX/qfEXypbHgOyqQj+TyafSd4AAnv18X/ml
7Zt5v306VX5HkbAVWZReCgF5AO0KAgwRHkuDW7Ff9PSI9xAgu1ylGakx8xJm8fHz
ZGl3MmFb80hTG0Ngu5RkmsJmNJ7EdGoz9OQlw7JvgM5Eiz6pIBbfHo5TLmNl3s9h
WA9ndH7I43lUUuUcy4I8Aj7Sb8Um1qvkUs5bhWkcaM5osa1DhsrsFj4sJbu1Vu7o
gjuasdSxfrfhHcVvhTtr+AshnusgE7m1MmILZ+ea9SCf/m4lxnmZR0NOkejbheP6
oj0kG0zmGZ89tfgytqXTPVoQAyeueuexUyHr2USinfU7rRjfAgMBAAGjdDByMAkG
A1UdEwQCMAAwHQYDVR0OBBYEFJs3m65BOs5X0Fc34BMd4vDC5sIrMB8GA1UdIwQY
MBaAFJiPPlejJCLLUw6PBuMtTcMF7iqbMCUGA1UdEQQeMByCDSouZXhhbXBsZS5j
b22CC2V4YW1wbGUuY29tMA0GCSqGSIb3DQEBCwUAA4IBAQDZEs2lVM6nageZsQgz
v3GX1rYod0sOaPWKSLH/mWPp4eW0bx+tEfl3MfrKpUi3p6OMOUentTb+ITpXple5
K2qysrKbikN9DO76ccftcaBGLtiYcb9TyHDR50JRxPx4yD5+KZTrzVkJeU0QcNNJ
yffhjDrCiyxoDD14wFRYV0TOSA68QmNOA65sDRroKNuhXVbzhl8kvqltEjSAU5a+
1sZt9SQtQSnLQxCyE+9b9zF6NswpecI/q9uwDPgidjdcDuhT2Vpa9F0XpqDucpUs
xZsGhwsSxe5NaTNEl+PHeoA50vlEVgTpLh/QEza6s0JkURB69Ig4dC0oH41w3Y0j
IIv8
-----END CERTIFICATE-----
