-----BEGIN PRIVATE KEY-----
MIIEvAIBADANBgkqhkiG9w0BAQEFAASCBKYwggSiAgEAAoIBAQCakGukOVZyhW1T
vCstuNDcO6X/j29P+/ZNgFYgsvtzg05/sfm7+KCU1wAamy7ZiVjvbIDbeK8AnjM+
o38iQhk7LQrwsf+eEndUfvBiboCXgjG6wLu8yzA6xRw0fUG+PchTTndcpTwXMd0S
2hkxssj1Rn8CSJ12igEs/FnqZMjxXIt6W/F+A+CPnx8Z9xxkUkK8J2U0dIoKWk8X
/AQ/xjNReQ/4UtUHCHfxj2H4evnRq6x/rauPgZV4TuM4t3eH2Xe1Kk1+iX09vc5t
tyyaTbXgvBdHXlG+uIWpEGDMk4CLFeT6IcZ4YTzyUQUEG9aIDCrFPqwD+I3fsEwY
O3zMmJ45AgMBAAECggEAAKWUkbwcsL9+sOBDdP5GP3mvbOWag2TsR7A/DAV7uGTH
BhFGWINGlsDckv/tvwLMYLodQu3bG59N2xf/jvLkXKNIXa/9ABoXLj8Wve608o1c
rGmkj3pxMfnDr7OLfCKRjUmxha16ViWDBZJskxDqtt4L54RKxmV28kt/C9ROo/Xr
xEZI99TcfIhoSugxue2dsaE3FRxDDClxtVtwQl9dsk5KjCHHlX8kAEuWhBo+VZwd
sNzs2YN1r4IESNus88MGqXiR/UjtUXBbRkjI8rSazkc8OKx6LASsWwiykdvvUg+I
y4fijEKmvXC/ZDPbFXKieTqTAy3uGVaeKdQtI8y8tQKBgQDJNvb79MXG6W0fe0Du
Ldipr1+mABqsyhe1EDimLOUIszg1Y74no2r3OEO0ImXvYCBT/ivUaubNVMHqs56T
FFjgjI95w+86sq1QNn98le0Jy0D3QZ/J6rRfvMcPlLdr1PWz122KsufC5n3RPDsc
oN1PLUEaKeFy5trNRsHCjz0avQKBgQDEpdNY1xyqbvy4ngYZkAAigVBMySYku0An
3hZWFRikgctgItxaDcLX1AydFvLLkn6yXtxrnpkyHcLWkM11qW3+Eybh3a9mX37o
f4E2rUigDuiSsGGQAAh3aCcmOfSmVaYLRRLn27EEWGE+j9+Gg1Uz7sHWOVs4l41i
Zc+idXrHLQKBgB1MoqRHnTD8toYaBXdpN55lyhC6/Sdh+hfEd+tCqEsfBbVIg9zz
v9Sl3b3yMFOt9KcmYK16r4cAq4gIhbO3B8YS0aWScVhjwjbm6KN0lWKStTAL3z+g
rIkwTPAo4JiUFv8MBIhoyrSnqXR5R8ZAalloJo2vwYNguEWh4v74qpYlAoGALMMq
dsCQj+Mvt76Q2OTEgxY4dyIagqX1Fp4hK3sl3tyEtN96lS0ouwRT0rZUki5IlMWv
GvhBGv1XSowvmKb2mK03XpadxIncU4Qin5WWQIjkO+/WZXb8dmHI95SdsfcxEsOo
aArEIp8Tk7AgS3g9vtKMYP0xXJJy5oESYIKpbgkCgYAz03bD/VYrK9LFVi8gJtQW
O2q+NBItlIF5CP1pYtc8t5UdYNpi9n8JIBSVsFkNwzf9ihOqdlzIWoF3b3DZQyyD
e4VSxte4bksW0lNRhg/Gs/rF1kM2rZgCeos2b/mD+/NYkwZvouakC/vWqxtDGH/o
2nvuL6JAWmqbnNBpaBh89Q==
-----END PRIVATE KEY-----
Certificate:
    Data:
        Version: 3 (0x2)
        Serial Number:
            5b:bf:98:f0:d9:aa:6b:95:12:40:53:1e:48:f0:74:31:e6:e9:cf:48
        Signature Algorithm: sha256WithRSAEncryption
        Issuer: C=IE, ST=Laighin, O=openssl-ech, CN=ca
        Validity
            Not Before: Feb 15 15:33:55 2024 GMT
            Not After : Feb 12 15:33:55 2034 GMT
        Subject: C=IE, ST=Laighin, O=openssl-ech, CN=bar.example.com
        Subject Public Key Info:
            Public Key Algorithm: rsaEncryption
                Public-Key: (2048 bit)
                Modulus:
                    00:9a:90:6b:a4:39:56:72:85:6d:53:bc:2b:2d:b8:
                    d0:dc:3b:a5:ff:8f:6f:4f:fb:f6:4d:80:56:20:b2:
                    fb:73:83:4e:7f:b1:f9:bb:f8:a0:94:d7:00:1a:9b:
                    2e:d9:89:58:ef:6c:80:db:78:af:00:9e:33:3e:a3:
                    7f:22:42:19:3b:2d:0a:f0:b1:ff:9e:12:77:54:7e:
                    f0:62:6e:80:97:82:31:ba:c0:bb:bc:cb:30:3a:c5:
                    1c:34:7d:41:be:3d:c8:53:4e:77:5c:a5:3c:17:31:
                    dd:12:da:19:31:b2:c8:f5:46:7f:02:48:9d:76:8a:
                    01:2c:fc:59:ea:64:c8:f1:5c:8b:7a:5b:f1:7e:03:
                    e0:8f:9f:1f:19:f7:1c:64:52:42:bc:27:65:34:74:
                    8a:0a:5a:4f:17:fc:04:3f:c6:33:51:79:0f:f8:52:
                    d5:07:08:77:f1:8f:61:f8:7a:f9:d1:ab:ac:7f:ad:
                    ab:8f:81:95:78:4e:e3:38:b7:77:87:d9:77:b5:2a:
                    4d:7e:89:7d:3d:bd:ce:6d:b7:2c:9a:4d:b5:e0:bc:
                    17:47:5e:51:be:b8:85:a9:10:60:cc:93:80:8b:15:
                    e4:fa:21:c6:78:61:3c:f2:51:05:04:1b:d6:88:0c:
                    2a:c5:3e:ac:03:f8:8d:df:b0:4c:18:3b:7c:cc:98:
                    9e:39
                Exponent: 65537 (0x10001)
        X509v3 extensions:
            X509v3 Basic Constraints: 
                CA:FALSE
            X509v3 Subject Key Identifier: 
                A0:C3:6B:F2:EE:7E:3D:40:EE:1F:3A:D9:B0:90:28:D4:E2:4F:1B:82
            X509v3 Authority Key Identifier: 
                98:8F:3E:57:A3:24:22:CB:53:0E:8F:06:E3:2D:4D:C3:05:EE:2A:9B
            X509v3 Subject Alternative Name: 
                DNS:*.bar.example.com, DNS:bar.example.com
    Signature Algorithm: sha256WithRSAEncryption
    Signature Value:
        c0:93:2f:6f:7d:d3:86:c4:54:8d:d2:de:85:5a:6f:35:b4:84:
        7a:27:5a:9f:6f:f7:26:36:cf:bf:30:1d:3b:77:73:e4:3c:90:
        58:29:62:f1:e2:c1:89:1d:88:87:b8:b2:5a:63:4a:2e:56:8e:
        ac:cc:ee:df:63:26:38:fd:49:2a:2b:1e:c4:3f:1b:85:30:c9:
        5e:f4:77:94:17:6b:f3:78:e5:ba:37:ac:21:42:8f:97:f2:3a:
        e6:e9:b1:c7:57:9c:9e:57:5f:bc:58:40:bc:1a:3a:95:27:ea:
        eb:cf:ca:69:b0:65:aa:55:f0:b8:52:8a:48:eb:f3:3d:99:8c:
        e8:ae:64:12:54:d4:64:32:63:82:66:5d:f2:5a:a2:ec:ad:ec:
        f2:7d:fb:90:0d:26:f8:47:7c:82:77:39:48:9f:a5:b8:05:07:
        fe:29:31:2b:c9:30:be:9f:a6:c7:14:0a:e5:83:05:48:63:dd:
        1b:23:20:52:46:45:f1:f5:d2:cf:ca:72:a4:7e:0a:b3:0c:04:
        02:76:7d:36:ea:b6:fb:79:7a:f7:ed:dd:9c:e4:d7:59:78:0a:
        75:1e:10:d7:23:74:41:b6:c1:03:c5:e5:3d:99:06:fa:db:5f:
        e1:7b:1c:e1:f5:48:d6:f7:b2:9a:9c:ad:0e:68:11:7d:74:6f:
        4e:56:cf:9d
-----BEGIN CERTIFICATE-----
MIIDmzCCAoOgAwIBAgIUW7+Y8Nmqa5USQFMeSPB0Mebpz0gwDQYJKoZIhvcNAQEL
BQAwQjELMAkGA1UEBhMCSUUxEDAOBgNVBAgMB0xhaWdoaW4xFDASBgNVBAoMC29w
ZW5zc2wtZWNoMQswCQYDVQQDDAJjYTAeFw0yNDAyMTUxNTMzNTVaFw0zNDAyMTIx
NTMzNTVaME8xCzAJBgNVBAYTAklFMRAwDgYDVQQIDAdMYWlnaGluMRQwEgYDVQQK
DAtvcGVuc3NsLWVjaDEYMBYGA1UEAwwPYmFyLmV4YW1wbGUuY29tMIIBIjANBgkq
hkiG9w0BAQEFAAOCAQ8AMIIBCgKCAQEAmpBrpDlWcoVtU7wrLbjQ3Dul/49vT/v2
TYBWILL7c4NOf7H5u/iglNcAGpsu2YlY72yA23ivAJ4zPqN/IkIZOy0K8LH/nhJ3
VH7wYm6Al4IxusC7vMswOsUcNH1Bvj3IU053XKU8FzHdEtoZMbLI9UZ/AkiddooB
LPxZ6mTI8VyLelvxfgPgj58fGfccZFJCvCdlNHSKClpPF/wEP8YzUXkP+FLVBwh3
8Y9h+Hr50ausf62rj4GVeE7jOLd3h9l3tSpNfol9Pb3Obbcsmk214LwXR15RvriF
qRBgzJOAixXk+iHGeGE88lEFBBvWiAwqxT6sA/iN37BMGDt8zJieOQIDAQABo3ww
ejAJBgNVHRMEAjAAMB0GA1UdDgQWBBSgw2vy7n49QO4fOtmwkCjU4k8bgjAfBgNV
HSMEGDAWgBSYjz5XoyQiy1MOjwbjLU3DBe4qmzAtBgNVHREEJjAkghEqLmJhci5l
eGFtcGxlLmNvbYIPYmFyLmV4YW1wbGUuY29tMA0GCSqGSIb3DQEBCwUAA4IBAQDA
ky9vfdOGxFSN0t6FWm81tIR6J1qfb/cmNs+/MB07d3PkPJBYKWLx4sGJHYiHuLJa
Y0ouVo6szO7fYyY4/UkqKx7EPxuFMMle9HeUF2vzeOW6N6whQo+X8jrm6bHHV5ye
V1+8WEC8GjqVJ+rrz8ppsGWqVfC4UopI6/M9mYzormQSVNRkMmOCZl3yWqLsrezy
ffuQDSb4R3yCdzlIn6W4BQf+KTEryTC+n6bHFArlgwVIY90bIyBSRkXx9dLPynKk
fgqzDAQCdn026rb7eXr37d2c5NdZeAp1HhDXI3RBtsEDxeU9mQb621/hexzh9UjW
97KanK0OaBF9dG9OVs+d
-----END CERTIFICATE-----
