Certificate:
    Data:
        Version: 3 (0x2)
        Serial Number:
            5b:bf:98:f0:d9:aa:6b:95:12:40:53:1e:48:f0:74:31:e6:e9:cf:49
        Signature Algorithm: sha256WithRSAEncryption
        Issuer: C=IE, ST=Laighin, O=openssl-ech, CN=ca
        Validity
            Not Before: Feb 15 15:33:56 2024 GMT
            Not After : Feb 12 15:33:56 2034 GMT
        Subject: C=IE, ST=Laighin, O=openssl-ech, CN=baz.example.com
        Subject Public Key Info:
            Public Key Algorithm: rsaEncryption
                Public-Key: (2048 bit)
                Modulus:
                    00:ca:23:c1:ec:f9:ff:12:97:ff:d9:21:8c:b1:3e:
                    7f:be:b6:06:98:ad:ec:53:c6:6f:1e:71:d0:a0:13:
                    ee:ac:87:c3:e4:83:44:b9:f7:b3:fe:9b:fb:cd:c8:
                    06:84:70:0c:1d:ef:46:c4:d3:11:87:85:02:6b:55:
                    ee:fe:d7:c8:f4:cd:ab:af:96:c3:21:92:98:d9:95:
                    58:1a:b3:04:6f:20:1b:09:a9:29:59:d6:ff:3b:80:
                    60:28:66:b5:ac:bc:65:7a:48:1a:8e:5b:76:a4:a1:
                    a1:66:4e:4e:18:c8:d0:14:77:ab:84:27:7b:8c:f1:
                    2b:c3:06:e9:21:bd:19:84:5b:d8:4d:01:59:2d:b2:
                    44:43:17:19:2f:35:e3:c4:1d:c5:c2:fc:1f:8c:c7:
                    6a:27:7a:4b:13:19:bc:34:11:74:60:c5:c6:d3:51:
                    d0:13:5b:a1:72:76:2f:2c:65:cc:83:62:f1:09:40:
                    df:04:5e:a8:e8:ca:9d:f4:5e:10:f1:c2:30:1d:a7:
                    cb:98:e9:0f:91:32:0a:fa:99:dc:82:ea:2e:98:cd:
                    3d:36:34:3c:36:b3:64:2d:cd:3b:11:d2:47:7b:99:
                    16:55:c2:57:46:d8:e5:44:dd:e6:c1:ff:c4:21:bf:
                    82:94:af:47:b4:44:b8:d5:e4:a0:af:e2:c8:a4:30:
                    81:8b
                Exponent: 65537 (0x10001)
        X509v3 extensions:
            X509v3 Basic Constraints: 
                CA:FALSE
            X509v3 Subject Key Identifier: 
                AA:2C:DB:62:0A:A6:44:2F:07:DD:65:68:8A:FF:C8:36:83:88:25:7F
            X509v3 Authority Key Identifier: 
                98:8F:3E:57:A3:24:22:CB:53:0E:8F:06:E3:2D:4D:C3:05:EE:2A:9B
            X509v3 Subject Alternative Name: 
                DNS:*.baz.example.com, DNS:baz.example.com
    Signature Algorithm: sha256WithRSAEncryption
    Signature Value:
        5e:70:d5:9d:46:ee:28:d5:e9:71:d3:3a:7e:eb:49:9e:20:ab:
        31:77:1f:4e:88:28:d6:03:74:69:3b:21:08:55:c2:38:c1:63:
        94:53:77:19:f1:49:d0:a8:6b:0d:fc:cd:cc:b4:cc:25:ba:b5:
        f3:3a:32:56:08:04:f2:2d:de:f9:f7:14:00:47:2c:38:c0:49:
        a1:1a:48:0e:88:57:74:04:53:34:1b:cd:a0:98:d8:a8:e2:1a:
        86:07:48:ed:10:d7:12:d9:8c:c5:de:a4:ff:e8:99:b7:cd:d8:
        2f:76:ee:ba:5c:00:83:7e:71:29:b7:2f:d8:9d:ee:8f:39:86:
        08:2a:6c:dc:ed:d6:ac:62:11:b3:ea:9e:9f:08:7c:f1:64:fa:
        93:bd:ec:7d:c8:38:5e:56:bc:42:aa:82:80:23:90:ad:dc:99:
        19:d4:1b:00:01:9c:1c:0a:5a:22:61:6e:f9:a1:da:a3:90:e9:
        be:be:8d:00:1b:a4:59:a1:ae:7d:b9:d7:03:4c:6c:c2:81:02:
        9a:a0:6a:83:f3:a3:99:5d:74:07:7f:12:e3:c3:45:a9:90:39:
        51:2e:94:82:87:7c:b4:37:fb:ed:37:15:c8:33:c3:e0:1b:00:
        53:a7:cd:53:59:78:b2:67:fd:61:c8:82:f0:d0:c7:e2:c1:46:
        c8:ed:d7:66
-----BEGIN CERTIFICATE-----
MIIDmzCCAoOgAwIBAgIUW7+Y8Nmqa5USQFMeSPB0Mebpz0kwDQYJKoZIhvcNAQEL
BQAwQjELMAkGA1UEBhMCSUUxEDAOBgNVBAgMB0xhaWdoaW4xFDASBgNVBAoMC29w
ZW5zc2wtZWNoMQswCQYDVQQDDAJjYTAeFw0yNDAyMTUxNTMzNTZaFw0zNDAyMTIx
NTMzNTZaME8xCzAJBgNVBAYTAklFMRAwDgYDVQQIDAdMYWlnaGluMRQwEgYDVQQK
DAtvcGVuc3NsLWVjaDEYMBYGA1UEAwwPYmF6LmV4YW1wbGUuY29tMIIBIjANBgkq
hkiG9w0BAQEFAAOCAQ8AMIIBCgKCAQEAyiPB7Pn/Epf/2SGMsT5/vrYGmK3sU8Zv
HnHQoBPurIfD5INEufez/pv7zcgGhHAMHe9GxNMRh4UCa1Xu/tfI9M2rr5bDIZKY
2ZVYGrMEbyAbCakpWdb/O4BgKGa1rLxlekgajlt2pKGhZk5OGMjQFHerhCd7jPEr
wwbpIb0ZhFvYTQFZLbJEQxcZLzXjxB3FwvwfjMdqJ3pLExm8NBF0YMXG01HQE1uh
cnYvLGXMg2LxCUDfBF6o6Mqd9F4Q8cIwHafLmOkPkTIK+pncguoumM09NjQ8NrNk
Lc07EdJHe5kWVcJXRtjlRN3mwf/EIb+ClK9HtES41eSgr+LIpDCBiwIDAQABo3ww
ejAJBgNVHRMEAjAAMB0GA1UdDgQWBBSqLNtiCqZELwfdZWiK/8g2g4glfzAfBgNV
HSMEGDAWgBSYjz5XoyQiy1MOjwbjLU3DBe4qmzAtBgNVHREEJjAkghEqLmJhei5l
eGFtcGxlLmNvbYIPYmF6LmV4YW1wbGUuY29tMA0GCSqGSIb3DQEBCwUAA4IBAQBe
cNWdRu4o1elx0zp+60meIKsxdx9OiCjWA3RpOyEIVcI4wWOUU3cZ8UnQqGsN/M3M
tMwlurXzOjJWCATyLd759xQARyw4wEmhGkgOiFd0BFM0G82gmNio4hqGB0jtENcS
2YzF3qT/6Jm3zdgvdu66XACDfnEpty/Yne6POYYIKmzc7dasYhGz6p6fCHzxZPqT
vex9yDheVrxCqoKAI5Ct3JkZ1BsAAZwcCloiYW75odqjkOm+vo0AG6RZoa59udcD
TGzCgQKaoGqD86OZXXQHfxLjw0WpkDlRLpSCh3y0N/vtNxXIM8PgGwBTp81TWXiy
Z/1hyILw0MfiwUbI7ddm
-----END CERTIFICATE-----
