Certificate:
    Data:
        Version: 3 (0x2)
        Serial Number:
            5b:bf:98:f0:d9:aa:6b:95:12:40:53:1e:48:f0:74:31:e6:e9:cf:47
        Signature Algorithm: sha256WithRSAEncryption
        Issuer: C=IE, ST=Laighin, O=openssl-ech, CN=ca
        Validity
            Not Before: Feb 15 15:33:55 2024 GMT
            Not After : Feb 12 15:33:55 2034 GMT
        Subject: C=IE, ST=Laighin, O=openssl-ech, CN=foo.example.com
        Subject Public Key Info:
            Public Key Algorithm: rsaEncryption
                Public-Key: (2048 bit)
                Modulus:
                    00:97:c7:59:bd:9a:c4:4e:cc:9d:97:19:a8:a5:11:
                    fb:41:35:c7:e2:7e:79:e7:37:91:88:7f:77:9c:5b:
                    0b:8c:1b:ef:89:f2:a4:39:52:56:52:95:7b:54:9c:
                    0e:26:40:aa:b4:ca:0f:53:1a:62:f7:36:c9:27:2f:
                    aa:cb:76:38:57:d1:a1:59:5e:c0:ac:37:f5:e3:de:
                    78:60:f4:8c:d2:42:c2:4a:90:5b:97:0b:37:c5:47:
                    3a:2e:5d:4f:b6:43:ec:7d:18:73:04:2e:88:ee:a8:
                    a9:e7:78:dd:19:9f:c1:18:0e:56:cf:2d:c3:cc:d3:
                    a2:97:bf:b7:74:68:4d:0e:94:27:60:52:45:c5:a2:
                    99:af:15:62:6d:80:1f:dd:0c:a7:bb:ba:9e:a0:86:
                    99:25:48:da:ca:ae:3f:17:39:0d:db:c9:c9:03:c7:
                    b6:ee:a5:94:a7:f6:16:7a:e2:a4:34:70:b3:0a:59:
                    04:80:aa:a3:d2:54:a7:39:28:02:4b:53:7d:d0:0f:
                    10:3a:37:d4:7f:26:bb:35:88:eb:f6:a3:cc:73:86:
                    49:9b:b1:86:d5:21:23:24:8a:97:e6:48:0f:cc:9c:
                    78:85:f6:ad:85:78:ce:a3:7c:0c:6b:41:cc:9c:f6:
                    75:4d:b2:57:9e:ed:34:7a:e6:d6:dc:b8:21:d3:47:
                    91:03
                Exponent: 65537 (0x10001)
        X509v3 extensions:
            X509v3 Basic Constraints: 
                CA:FALSE
            X509v3 Subject Key Identifier: 
                C5:46:F8:EB:3B:A9:C4:BF:56:8F:61:29:C7:89:92:9F:80:30:30:5A
            X509v3 Authority Key Identifier: 
                98:8F:3E:57:A3:24:22:CB:53:0E:8F:06:E3:2D:4D:C3:05:EE:2A:9B
            X509v3 Subject Alternative Name: 
                DNS:*.foo.example.com, DNS:foo.example.com
    Signature Algorithm: sha256WithRSAEncryption
    Signature Value:
        cc:2e:5c:ab:27:d7:60:4d:5e:04:d8:f2:f4:86:19:1b:da:57:
        23:64:a9:7e:2b:a7:22:69:de:53:f1:f6:58:42:73:65:8a:ee:
        42:7c:c9:fb:3a:2b:b4:2a:91:d4:0f:a6:f5:56:13:bb:3b:10:
        28:c2:d9:a9:8c:8a:a2:ab:fa:7d:43:42:52:93:4c:54:33:62:
        33:0c:69:96:c4:07:3c:f6:5c:5e:a6:e9:c1:10:86:a4:b8:ca:
        e6:8a:01:39:57:a8:3e:1a:8d:9c:e6:9e:08:29:6c:04:1b:15:
        5f:fe:0a:29:87:19:ea:f4:3e:aa:d8:20:6a:3f:35:89:67:6d:
        6a:e2:c8:b7:b9:a7:8f:3e:1f:40:f3:8d:a5:f1:9d:cc:d8:96:
        45:82:11:0a:2d:7c:8a:3b:3a:fa:a7:29:4e:d9:20:83:7c:ab:
        45:1f:fe:bc:23:56:41:76:db:70:c3:2d:43:d9:ae:87:6d:f0:
        7a:5f:f5:cc:fe:24:87:08:42:c9:e4:7f:eb:db:02:b9:1d:3c:
        ef:3e:50:f2:42:60:a9:0b:8d:d0:e0:2c:5d:e3:06:9e:1a:4b:
        b0:8c:3a:03:1f:87:b8:0c:82:e2:25:b0:90:93:6f:51:72:bf:
        a4:de:6a:29:0b:53:01:1a:96:c5:f6:97:a8:03:74:76:9a:d2:
        07:68:96:25
-----BEGIN CERTIFICATE-----
MIIDmzCCAoOgAwIBAgIUW7+Y8Nmqa5USQFMeSPB0Mebpz0cwDQYJKoZIhvcNAQEL
BQAwQjELMAkGA1UEBhMCSUUxEDAOBgNVBAgMB0xhaWdoaW4xFDASBgNVBAoMC29w
ZW5zc2wtZWNoMQswCQYDVQQDDAJjYTAeFw0yNDAyMTUxNTMzNTVaFw0zNDAyMTIx
NTMzNTVaME8xCzAJBgNVBAYTAklFMRAwDgYDVQQIDAdMYWlnaGluMRQwEgYDVQQK
DAtvcGVuc3NsLWVjaDEYMBYGA1UEAwwPZm9vLmV4YW1wbGUuY29tMIIBIjANBgkq
hkiG9w0BAQEFAAOCAQ8AMIIBCgKCAQEAl8dZvZrETsydlxmopRH7QTXH4n555zeR
iH93nFsLjBvvifKkOVJWUpV7VJwOJkCqtMoPUxpi9zbJJy+qy3Y4V9GhWV7ArDf1
4954YPSM0kLCSpBblws3xUc6Ll1PtkPsfRhzBC6I7qip53jdGZ/BGA5Wzy3DzNOi
l7+3dGhNDpQnYFJFxaKZrxVibYAf3Qynu7qeoIaZJUjayq4/FzkN28nJA8e27qWU
p/YWeuKkNHCzClkEgKqj0lSnOSgCS1N90A8QOjfUfya7NYjr9qPMc4ZJm7GG1SEj
JIqX5kgPzJx4hfathXjOo3wMa0HMnPZ1TbJXnu00eubW3Lgh00eRAwIDAQABo3ww
ejAJBgNVHRMEAjAAMB0GA1UdDgQWBBTFRvjrO6nEv1aPYSnHiZKfgDAwWjAfBgNV
HSMEGDAWgBSYjz5XoyQiy1MOjwbjLU3DBe4qmzAtBgNVHREEJjAkghEqLmZvby5l
eGFtcGxlLmNvbYIPZm9vLmV4YW1wbGUuY29tMA0GCSqGSIb3DQEBCwUAA4IBAQDM
LlyrJ9dgTV4E2PL0hhkb2lcjZKl+K6ciad5T8fZYQnNliu5CfMn7Oiu0KpHUD6b1
VhO7OxAowtmpjIqiq/p9Q0JSk0xUM2IzDGmWxAc89lxepunBEIakuMrmigE5V6g+
Go2c5p4IKWwEGxVf/gophxnq9D6q2CBqPzWJZ21q4si3uaePPh9A842l8Z3M2JZF
ghEKLXyKOzr6pylO2SCDfKtFH/68I1ZBdttwwy1D2a6HbfB6X/XM/iSHCELJ5H/r
2wK5HTzvPlDyQmCpC43Q4Cxd4waeGkuwjDoDH4e4DILiJbCQk29Rcr+k3mopC1MB
GpbF9peoA3R2mtIHaJYl
-----END CERTIFICATE-----
